target datalayout = "e-m:e-p270:32:32-p271:32:32-p272:64:64-i64:64-i128:128-f80:128-n8:16:32:64-S128"
target triple = "x86_64-pc-linux-gnu"

%struct.Vec_Wec_t_ = type { i32, i32, ptr }
%struct.Gia_Man_t_ = type { ptr, ptr, i32, i32, i32, i32, ptr, ptr, i32, i32, i32, ptr, ptr, %struct.Vec_Int_t_, %struct.Vec_Int_t_, i32, i32, i32, %struct.Vec_Int_t_, ptr, ptr, ptr, i32, i32, i32, i32, ptr, ptr, ptr, ptr, ptr, i32, i32, ptr, i32, ptr, ptr, ptr, ptr, ptr, ptr, ptr, ptr, ptr, ptr, ptr, ptr, ptr, ptr, ptr, ptr, ptr, ptr, %struct.Vec_Int_t_, %struct.Vec_Int_t_, ptr, ptr, ptr, ptr, ptr, ptr, ptr, ptr, ptr, ptr, ptr, ptr, ptr, ptr, ptr, ptr, ptr, ptr, ptr, ptr, ptr, i32, float, float, ptr, ptr, i32, ptr, ptr, ptr, ptr, ptr, ptr, ptr, ptr, ptr, ptr, ptr, ptr, ptr, ptr, ptr, i64, i64, ptr, ptr, i32, i32, i32, i32, i32, i32, i32, i32, i32, i32, i32, i32, ptr, ptr, ptr, ptr, ptr, ptr, ptr, ptr, i32, i32, i32, ptr, i32, i32, ptr, ptr, ptr, ptr, ptr, ptr, i32, i32, ptr, %struct.Vec_Int_t_, %struct.Vec_Int_t_, %struct.Vec_Int_t_, ptr, ptr, ptr, i32, i32, i32, i32, ptr, ptr, ptr, ptr, ptr }
%struct.Vec_Int_t_ = type { i32, i32, ptr }
%struct.Spl_Man_t_ = type { ptr, i32, i32, i32, ptr, ptr, ptr, ptr, ptr, ptr, ptr, ptr, ptr, ptr, ptr }
%struct.Vec_Bit_t_ = type { i32, i32, ptr }

; Function Attrs: inlinehint nounwind uwtable
define internal void @Vec_WecErase(ptr noundef %0) #2 {
  %2 = alloca ptr, align 8
  %3 = alloca i32, align 4
  store ptr %0, ptr %2, align 8, !tbaa !8
  call void @llvm.lifetime.start.p0(i64 4, ptr %3) #9
  store i32 0, ptr %3, align 4, !tbaa !10
  br label %4

4:                                                ; preds = %38, %1
  %5 = load i32, ptr %3, align 4, !tbaa !10
  %6 = load ptr, ptr %2, align 8, !tbaa !8
  %7 = getelementptr inbounds nuw %struct.Vec_Wec_t_, ptr %6, i32 0, i32 0
  %8 = load i32, ptr %7, align 8, !tbaa !115
  %9 = icmp slt i32 %5, %8
  br i1 %9, label %10, label %41

10:                                               ; preds = %4
  %11 = load ptr, ptr %2, align 8, !tbaa !8
  %12 = getelementptr inbounds nuw %struct.Vec_Wec_t_, ptr %11, i32 0, i32 2
  %13 = load ptr, ptr %12, align 8, !tbaa !46
  %14 = load i32, ptr %3, align 4, !tbaa !10
  %15 = sext i32 %14 to i64
  %16 = getelementptr inbounds %struct.Vec_Int_t_, ptr %13, i64 %15
  %17 = getelementptr inbounds nuw %struct.Vec_Int_t_, ptr %16, i32 0, i32 2
  %18 = load ptr, ptr %17, align 8, !tbaa !42
  %19 = icmp ne ptr %18, null
  br i1 %19, label %20, label %36

20:                                               ; preds = %10
  %21 = load ptr, ptr %2, align 8, !tbaa !8
  %22 = getelementptr inbounds nuw %struct.Vec_Wec_t_, ptr %21, i32 0, i32 2
  %23 = load ptr, ptr %22, align 8, !tbaa !46
  %24 = load i32, ptr %3, align 4, !tbaa !10
  %25 = sext i32 %24 to i64
  %26 = getelementptr inbounds %struct.Vec_Int_t_, ptr %23, i64 %25
  %27 = getelementptr inbounds nuw %struct.Vec_Int_t_, ptr %26, i32 0, i32 2
  %28 = load ptr, ptr %27, align 8, !tbaa !42
  call void @free(ptr noundef %28) #9
  %29 = load ptr, ptr %2, align 8, !tbaa !8
  %30 = getelementptr inbounds nuw %struct.Vec_Wec_t_, ptr %29, i32 0, i32 2
  %31 = load ptr, ptr %30, align 8, !tbaa !46
  %32 = load i32, ptr %3, align 4, !tbaa !10
  %33 = sext i32 %32 to i64
  %34 = getelementptr inbounds %struct.Vec_Int_t_, ptr %31, i64 %33
  %35 = getelementptr inbounds nuw %struct.Vec_Int_t_, ptr %34, i32 0, i32 2
  store ptr null, ptr %35, align 8, !tbaa !42
  br label %37

36:                                               ; preds = %10
  br label %37

37:                                               ; preds = %36, %20
  br label %38

38:                                               ; preds = %37
  %39 = load i32, ptr %3, align 4, !tbaa !10
  %40 = add nsw i32 %39, 1
  store i32 %40, ptr %3, align 4, !tbaa !10
  br label %4, !llvm.loop !117

41:                                               ; preds = %4
  %42 = load ptr, ptr %2, align 8, !tbaa !8
  %43 = getelementptr inbounds nuw %struct.Vec_Wec_t_, ptr %42, i32 0, i32 2
  %44 = load ptr, ptr %43, align 8, !tbaa !46
  %45 = icmp ne ptr %44, null
  br i1 %45, label %46, label %52

46:                                               ; preds = %41
  %47 = load ptr, ptr %2, align 8, !tbaa !8
  %48 = getelementptr inbounds nuw %struct.Vec_Wec_t_, ptr %47, i32 0, i32 2
  %49 = load ptr, ptr %48, align 8, !tbaa !46
  call void @free(ptr noundef %49) #9
  %50 = load ptr, ptr %2, align 8, !tbaa !8
  %51 = getelementptr inbounds nuw %struct.Vec_Wec_t_, ptr %50, i32 0, i32 2
  store ptr null, ptr %51, align 8, !tbaa !46
  br label %53

52:                                               ; preds = %41
  br label %53

53:                                               ; preds = %52, %46
  %54 = load ptr, ptr %2, align 8, !tbaa !8
  %55 = getelementptr inbounds nuw %struct.Vec_Wec_t_, ptr %54, i32 0, i32 1
  store i32 0, ptr %55, align 4, !tbaa !15
  %56 = load ptr, ptr %2, align 8, !tbaa !8
  %57 = getelementptr inbounds nuw %struct.Vec_Wec_t_, ptr %56, i32 0, i32 0
  store i32 0, ptr %57, align 8, !tbaa !115
  call void @llvm.lifetime.end.p0(i64 4, ptr %3) #9
  ret void
}

; Function Attrs: inlinehint nounwind uwtable
define internal void @Vec_WecFree(ptr noundef %0) #2 {
  %2 = alloca ptr, align 8
  store ptr %0, ptr %2, align 8, !tbaa !8
  %3 = load ptr, ptr %2, align 8, !tbaa !8
  call void @Vec_WecErase(ptr noundef %3)
  %4 = load ptr, ptr %2, align 8, !tbaa !8
  %5 = icmp ne ptr %4, null
  br i1 %5, label %6, label %8

6:                                                ; preds = %1
  %7 = load ptr, ptr %2, align 8, !tbaa !8
  call void @free(ptr noundef %7) #9
  store ptr null, ptr %2, align 8, !tbaa !8
  br label %9

8:                                                ; preds = %1
  br label %9

9:                                                ; preds = %8, %6
  ret void
}

; Function Attrs: inlinehint nounwind uwtable
define internal void @Vec_IntFree(ptr noundef %0) #2 {
  %2 = alloca ptr, align 8
  store ptr %0, ptr %2, align 8, !tbaa !37
  %3 = load ptr, ptr %2, align 8, !tbaa !37
  %4 = getelementptr inbounds nuw %struct.Vec_Int_t_, ptr %3, i32 0, i32 2
  %5 = load ptr, ptr %4, align 8, !tbaa !42
  %6 = icmp ne ptr %5, null
  br i1 %6, label %7, label %13

7:                                                ; preds = %1
  %8 = load ptr, ptr %2, align 8, !tbaa !37
  %9 = getelementptr inbounds nuw %struct.Vec_Int_t_, ptr %8, i32 0, i32 2
  %10 = load ptr, ptr %9, align 8, !tbaa !42
  call void @free(ptr noundef %10) #9
  %11 = load ptr, ptr %2, align 8, !tbaa !37
  %12 = getelementptr inbounds nuw %struct.Vec_Int_t_, ptr %11, i32 0, i32 2
  store ptr null, ptr %12, align 8, !tbaa !42
  br label %14

13:                                               ; preds = %1
  br label %14

14:                                               ; preds = %13, %7
  %15 = load ptr, ptr %2, align 8, !tbaa !37
  %16 = icmp ne ptr %15, null
  br i1 %16, label %17, label %19

17:                                               ; preds = %14
  %18 = load ptr, ptr %2, align 8, !tbaa !37
  call void @free(ptr noundef %18) #9
  store ptr null, ptr %2, align 8, !tbaa !37
  br label %20

19:                                               ; preds = %14
  br label %20

20:                                               ; preds = %19, %17
  ret void
}

; Function Attrs: inlinehint nounwind uwtable
define internal void @Vec_BitFree(ptr noundef %0) #2 {
  %2 = alloca ptr, align 8
  store ptr %0, ptr %2, align 8, !tbaa !70
  %3 = load ptr, ptr %2, align 8, !tbaa !70
  %4 = getelementptr inbounds nuw %struct.Vec_Bit_t_, ptr %3, i32 0, i32 2
  %5 = load ptr, ptr %4, align 8, !tbaa !73
  %6 = icmp ne ptr %5, null
  br i1 %6, label %7, label %13

7:                                                ; preds = %1
  %8 = load ptr, ptr %2, align 8, !tbaa !70
  %9 = getelementptr inbounds nuw %struct.Vec_Bit_t_, ptr %8, i32 0, i32 2
  %10 = load ptr, ptr %9, align 8, !tbaa !73
  call void @free(ptr noundef %10) #9
  %11 = load ptr, ptr %2, align 8, !tbaa !70
  %12 = getelementptr inbounds nuw %struct.Vec_Bit_t_, ptr %11, i32 0, i32 2
  store ptr null, ptr %12, align 8, !tbaa !73
  br label %14

13:                                               ; preds = %1
  br label %14

14:                                               ; preds = %13, %7
  %15 = load ptr, ptr %2, align 8, !tbaa !70
  %16 = icmp ne ptr %15, null
  br i1 %16, label %17, label %19

17:                                               ; preds = %14
  %18 = load ptr, ptr %2, align 8, !tbaa !70
  call void @free(ptr noundef %18) #9
  store ptr null, ptr %2, align 8, !tbaa !70
  br label %20

19:                                               ; preds = %14
  br label %20

20:                                               ; preds = %19, %17
  ret void
}

; Function Attrs: inlinehint nounwind uwtable
define internal void @Vec_WecFreeP(ptr noundef %0) #2 {
  %2 = alloca ptr, align 8
  store ptr %0, ptr %2, align 8, !tbaa !78
  %3 = load ptr, ptr %2, align 8, !tbaa !78
  %4 = load ptr, ptr %3, align 8, !tbaa !8
  %5 = icmp eq ptr %4, null
  br i1 %5, label %6, label %7

6:                                                ; preds = %1
  br label %11

7:                                                ; preds = %1
  %8 = load ptr, ptr %2, align 8, !tbaa !78
  %9 = load ptr, ptr %8, align 8, !tbaa !8
  call void @Vec_WecFree(ptr noundef %9)
  %10 = load ptr, ptr %2, align 8, !tbaa !78
  store ptr null, ptr %10, align 8, !tbaa !8
  br label %11

11:                                               ; preds = %7, %6
  ret void
}

; Function Attrs: nounwind uwtable
define void @Spl_ManStop(ptr noundef %0) #0 {
  %2 = alloca ptr, align 8
  store ptr %0, ptr %2, align 8, !tbaa !47
  %3 = load ptr, ptr %2, align 8, !tbaa !47
  %4 = getelementptr inbounds nuw %struct.Spl_Man_t_, ptr %3, i32 0, i32 0
  %5 = load ptr, ptr %4, align 8, !tbaa !49
  call void @Gia_ManStaticFanoutStop(ptr noundef %5)
  %6 = load ptr, ptr %2, align 8, !tbaa !47
  %7 = getelementptr inbounds nuw %struct.Spl_Man_t_, ptr %6, i32 0, i32 0
  %8 = load ptr, ptr %7, align 8, !tbaa !49
  %9 = load ptr, ptr %2, align 8, !tbaa !47
  %10 = getelementptr inbounds nuw %struct.Spl_Man_t_, ptr %9, i32 0, i32 0
  %11 = load ptr, ptr %10, align 8, !tbaa !49
  %12 = getelementptr inbounds nuw %struct.Gia_Man_t_, ptr %11, i32 0, i32 38
  %13 = load ptr, ptr %12, align 8, !tbaa !69
  %14 = call ptr @Spl_ManFromWecMapping(ptr noundef %8, ptr noundef %13)
  %15 = load ptr, ptr %2, align 8, !tbaa !47
  %16 = getelementptr inbounds nuw %struct.Spl_Man_t_, ptr %15, i32 0, i32 0
  %17 = load ptr, ptr %16, align 8, !tbaa !49
  %18 = getelementptr inbounds nuw %struct.Gia_Man_t_, ptr %17, i32 0, i32 37
  store ptr %14, ptr %18, align 8, !tbaa !36
  %19 = load ptr, ptr %2, align 8, !tbaa !47
  %20 = getelementptr inbounds nuw %struct.Spl_Man_t_, ptr %19, i32 0, i32 0
  %21 = load ptr, ptr %20, align 8, !tbaa !49
  %22 = getelementptr inbounds nuw %struct.Gia_Man_t_, ptr %21, i32 0, i32 38
  call void @Vec_WecFreeP(ptr noundef %22)
  %23 = load ptr, ptr %2, align 8, !tbaa !47
  %24 = getelementptr inbounds nuw %struct.Spl_Man_t_, ptr %23, i32 0, i32 4
  %25 = load ptr, ptr %24, align 8, !tbaa !53
  call void @Vec_BitFree(ptr noundef %25)
  %26 = load ptr, ptr %2, align 8, !tbaa !47
  %27 = getelementptr inbounds nuw %struct.Spl_Man_t_, ptr %26, i32 0, i32 5
  %28 = load ptr, ptr %27, align 8, !tbaa !54
  call void @Vec_BitFree(ptr noundef %28)
  %29 = load ptr, ptr %2, align 8, !tbaa !47
  %30 = getelementptr inbounds nuw %struct.Spl_Man_t_, ptr %29, i32 0, i32 6
  %31 = load ptr, ptr %30, align 8, !tbaa !55
  call void @Vec_BitFree(ptr noundef %31)
  %32 = load ptr, ptr %2, align 8, !tbaa !47
  %33 = getelementptr inbounds nuw %struct.Spl_Man_t_, ptr %32, i32 0, i32 7
  %34 = load ptr, ptr %33, align 8, !tbaa !56
  call void @Vec_BitFree(ptr noundef %34)
  %35 = load ptr, ptr %2, align 8, !tbaa !47
  %36 = getelementptr inbounds nuw %struct.Spl_Man_t_, ptr %35, i32 0, i32 8
  %37 = load ptr, ptr %36, align 8, !tbaa !57
  call void @Vec_IntFree(ptr noundef %37)
  %38 = load ptr, ptr %2, align 8, !tbaa !47
  %39 = getelementptr inbounds nuw %struct.Spl_Man_t_, ptr %38, i32 0, i32 9
  %40 = load ptr, ptr %39, align 8, !tbaa !58
  call void @Vec_IntFree(ptr noundef %40)
  %41 = load ptr, ptr %2, align 8, !tbaa !47
  %42 = getelementptr inbounds nuw %struct.Spl_Man_t_, ptr %41, i32 0, i32 10
  %43 = load ptr, ptr %42, align 8, !tbaa !59
  call void @Vec_IntFree(ptr noundef %43)
  %44 = load ptr, ptr %2, align 8, !tbaa !47
  %45 = getelementptr inbounds nuw %struct.Spl_Man_t_, ptr %44, i32 0, i32 11
  %46 = load ptr, ptr %45, align 8, !tbaa !60
  call void @Vec_IntFree(ptr noundef %46)
  %47 = load ptr, ptr %2, align 8, !tbaa !47
  %48 = getelementptr inbounds nuw %struct.Spl_Man_t_, ptr %47, i32 0, i32 12
  %49 = load ptr, ptr %48, align 8, !tbaa !61
  call void @Vec_IntFree(ptr noundef %49)
  %50 = load ptr, ptr %2, align 8, !tbaa !47
  %51 = getelementptr inbounds nuw %struct.Spl_Man_t_, ptr %50, i32 0, i32 13
  %52 = load ptr, ptr %51, align 8, !tbaa !62
  call void @Vec_IntFree(ptr noundef %52)
  %53 = load ptr, ptr %2, align 8, !tbaa !47
  %54 = getelementptr inbounds nuw %struct.Spl_Man_t_, ptr %53, i32 0, i32 14
  %55 = load ptr, ptr %54, align 8, !tbaa !63
  call void @Vec_IntFree(ptr noundef %55)
  %56 = load ptr, ptr %2, align 8, !tbaa !47
  %57 = icmp ne ptr %56, null
  br i1 %57, label %58, label %60

58:                                               ; preds = %1
  %59 = load ptr, ptr %2, align 8, !tbaa !47
  call void @free(ptr noundef %59) #9
  store ptr null, ptr %2, align 8, !tbaa !47
  br label %61

60:                                               ; preds = %1
  br label %61

61:                                               ; preds = %60, %58
  ret void
}