; Function Attrs: nounwind uwtable
define void @Spl_ManStop(ptr noundef captures(none) %0) local_unnamed_addr #0 {
  %2 = load ptr, ptr %0, align 8, !tbaa !44
  tail call void @Gia_ManStaticFanoutStop(ptr noundef %2) #18
  %3 = load ptr, ptr %0, align 8, !tbaa !44
  %4 = getelementptr inbounds nuw i8, ptr %3, i64 272
  %5 = load ptr, ptr %4, align 8, !tbaa !68
  %6 = tail call ptr @Spl_ManFromWecMapping(ptr noundef %3, ptr noundef %5)
  %7 = load ptr, ptr %0, align 8, !tbaa !44
  %8 = getelementptr inbounds nuw i8, ptr %7, i64 264
  store ptr %6, ptr %8, align 8, !tbaa !32
  %9 = getelementptr inbounds nuw i8, ptr %7, i64 272
  %10 = load ptr, ptr %9, align 8, !tbaa !70
  %11 = icmp eq ptr %10, null
  br i1 %11, label %Vec_WecFreeP.exit, label %12

12:                                               ; preds = %1
  %13 = load i32, ptr %10, align 8, !tbaa !28
  %14 = icmp sgt i32 %13, 0
  %15 = getelementptr inbounds nuw i8, ptr %10, i64 8
  %.pre.i.i.i = load ptr, ptr %15, align 8, !tbaa !30
  br i1 %14, label %.lr.ph.i.i.i, label %._crit_edge.i.i.i

.lr.ph.i.i.i:                                     ; preds = %12, %23
  %16 = phi i32 [ %24, %23 ], [ %13, %12 ]
  %17 = phi ptr [ %25, %23 ], [ %.pre.i.i.i, %12 ]
  %indvars.iv.i.i.i = phi i64 [ %indvars.iv.next.i.i.i, %23 ], [ 0, %12 ]
  %18 = getelementptr inbounds nuw %struct.Vec_Int_t_, ptr %17, i64 %indvars.iv.i.i.i, i32 2
  %19 = load ptr, ptr %18, align 8, !tbaa !33
  %.not15.i.i.i = icmp eq ptr %19, null
  br i1 %.not15.i.i.i, label %23, label %20

20:                                               ; preds = %.lr.ph.i.i.i
  tail call void @free(ptr noundef nonnull %19) #18
  %21 = load ptr, ptr %15, align 8, !tbaa !30
  %22 = getelementptr inbounds nuw %struct.Vec_Int_t_, ptr %21, i64 %indvars.iv.i.i.i, i32 2
  store ptr null, ptr %22, align 8, !tbaa !33
  %.pre18.i.i.i = load i32, ptr %10, align 8, !tbaa !28
  br label %23

23:                                               ; preds = %20, %.lr.ph.i.i.i
  %24 = phi i32 [ %.pre18.i.i.i, %20 ], [ %16, %.lr.ph.i.i.i ]
  %25 = phi ptr [ %21, %20 ], [ %17, %.lr.ph.i.i.i ]
  %indvars.iv.next.i.i.i = add nuw nsw i64 %indvars.iv.i.i.i, 1
  %26 = sext i32 %24 to i64
  %27 = icmp slt i64 %indvars.iv.next.i.i.i, %26
  br i1 %27, label %.lr.ph.i.i.i, label %._crit_edge.thread.i.i.i, !llvm.loop !71

._crit_edge.i.i.i:                                ; preds = %12
  %.not.i.i.i = icmp eq ptr %.pre.i.i.i, null
  br i1 %.not.i.i.i, label %Vec_WecFree.exit.i, label %._crit_edge.thread.i.i.i

._crit_edge.thread.i.i.i:                         ; preds = %23, %._crit_edge.i.i.i
  %28 = phi ptr [ %.pre.i.i.i, %._crit_edge.i.i.i ], [ %25, %23 ]
  tail call void @free(ptr noundef nonnull %28) #18
  br label %Vec_WecFree.exit.i

Vec_WecFree.exit.i:                               ; preds = %._crit_edge.thread.i.i.i, %._crit_edge.i.i.i
  tail call void @free(ptr noundef nonnull %10) #18
  store ptr null, ptr %9, align 8, !tbaa !70
  br label %Vec_WecFreeP.exit

Vec_WecFreeP.exit:                                ; preds = %1, %Vec_WecFree.exit.i
  %29 = getelementptr inbounds nuw i8, ptr %0, i64 24
  %30 = load ptr, ptr %29, align 8, !tbaa !52
  %31 = getelementptr inbounds nuw i8, ptr %30, i64 8
  %32 = load ptr, ptr %31, align 8, !tbaa !50
  %.not.i = icmp eq ptr %32, null
  br i1 %.not.i, label %Vec_BitFree.exit, label %33

33:                                               ; preds = %Vec_WecFreeP.exit
  tail call void @free(ptr noundef nonnull %32) #18
  br label %Vec_BitFree.exit

Vec_BitFree.exit:                                 ; preds = %Vec_WecFreeP.exit, %33
  tail call void @free(ptr noundef nonnull %30) #18
  %34 = getelementptr inbounds nuw i8, ptr %0, i64 32
  %35 = load ptr, ptr %34, align 8, !tbaa !53
  %36 = getelementptr inbounds nuw i8, ptr %35, i64 8
  %37 = load ptr, ptr %36, align 8, !tbaa !50
  %.not.i18 = icmp eq ptr %37, null
  br i1 %.not.i18, label %Vec_BitFree.exit19, label %38

38:                                               ; preds = %Vec_BitFree.exit
  tail call void @free(ptr noundef nonnull %37) #18
  br label %Vec_BitFree.exit19

Vec_BitFree.exit19:                               ; preds = %Vec_BitFree.exit, %38
  tail call void @free(ptr noundef nonnull %35) #18
  %39 = getelementptr inbounds nuw i8, ptr %0, i64 40
  %40 = load ptr, ptr %39, align 8, !tbaa !54
  %41 = getelementptr inbounds nuw i8, ptr %40, i64 8
  %42 = load ptr, ptr %41, align 8, !tbaa !50
  %.not.i20 = icmp eq ptr %42, null
  br i1 %.not.i20, label %Vec_BitFree.exit21, label %43

43:                                               ; preds = %Vec_BitFree.exit19
  tail call void @free(ptr noundef nonnull %42) #18
  br label %Vec_BitFree.exit21

Vec_BitFree.exit21:                               ; preds = %Vec_BitFree.exit19, %43
  tail call void @free(ptr noundef nonnull %40) #18
  %44 = getelementptr inbounds nuw i8, ptr %0, i64 48
  %45 = load ptr, ptr %44, align 8, !tbaa !55
  %46 = getelementptr inbounds nuw i8, ptr %45, i64 8
  %47 = load ptr, ptr %46, align 8, !tbaa !50
  %.not.i22 = icmp eq ptr %47, null
  br i1 %.not.i22, label %Vec_BitFree.exit23, label %48

48:                                               ; preds = %Vec_BitFree.exit21
  tail call void @free(ptr noundef nonnull %47) #18
  br label %Vec_BitFree.exit23

Vec_BitFree.exit23:                               ; preds = %Vec_BitFree.exit21, %48
  tail call void @free(ptr noundef nonnull %45) #18
  %49 = getelementptr inbounds nuw i8, ptr %0, i64 56
  %50 = load ptr, ptr %49, align 8, !tbaa !56
  %51 = getelementptr inbounds nuw i8, ptr %50, i64 8
  %52 = load ptr, ptr %51, align 8, !tbaa !33
  %.not.i24 = icmp eq ptr %52, null
  br i1 %.not.i24, label %Vec_IntFree.exit, label %53

53:                                               ; preds = %Vec_BitFree.exit23
  tail call void @free(ptr noundef nonnull %52) #18
  br label %Vec_IntFree.exit

Vec_IntFree.exit:                                 ; preds = %Vec_BitFree.exit23, %53
  tail call void @free(ptr noundef nonnull %50) #18
  %54 = getelementptr inbounds nuw i8, ptr %0, i64 64
  %55 = load ptr, ptr %54, align 8, !tbaa !57
  %56 = getelementptr inbounds nuw i8, ptr %55, i64 8
  %57 = load ptr, ptr %56, align 8, !tbaa !33
  %.not.i25 = icmp eq ptr %57, null
  br i1 %.not.i25, label %Vec_IntFree.exit26, label %58

58:                                               ; preds = %Vec_IntFree.exit
  tail call void @free(ptr noundef nonnull %57) #18
  br label %Vec_IntFree.exit26

Vec_IntFree.exit26:                               ; preds = %Vec_IntFree.exit, %58
  tail call void @free(ptr noundef nonnull %55) #18
  %59 = getelementptr inbounds nuw i8, ptr %0, i64 72
  %60 = load ptr, ptr %59, align 8, !tbaa !58
  %61 = getelementptr inbounds nuw i8, ptr %60, i64 8
  %62 = load ptr, ptr %61, align 8, !tbaa !33
  %.not.i27 = icmp eq ptr %62, null
  br i1 %.not.i27, label %Vec_IntFree.exit28, label %63

63:                                               ; preds = %Vec_IntFree.exit26
  tail call void @free(ptr noundef nonnull %62) #18
  br label %Vec_IntFree.exit28

Vec_IntFree.exit28:                               ; preds = %Vec_IntFree.exit26, %63
  tail call void @free(ptr noundef nonnull %60) #18
  %64 = getelementptr inbounds nuw i8, ptr %0, i64 80
  %65 = load ptr, ptr %64, align 8, !tbaa !59
  %66 = getelementptr inbounds nuw i8, ptr %65, i64 8
  %67 = load ptr, ptr %66, align 8, !tbaa !33
  %.not.i29 = icmp eq ptr %67, null
  br i1 %.not.i29, label %Vec_IntFree.exit30, label %68

68:                                               ; preds = %Vec_IntFree.exit28
  tail call void @free(ptr noundef nonnull %67) #18
  br label %Vec_IntFree.exit30

Vec_IntFree.exit30:                               ; preds = %Vec_IntFree.exit28, %68
  tail call void @free(ptr noundef nonnull %65) #18
  %69 = getelementptr inbounds nuw i8, ptr %0, i64 88
  %70 = load ptr, ptr %69, align 8, !tbaa !60
  %71 = getelementptr inbounds nuw i8, ptr %70, i64 8
  %72 = load ptr, ptr %71, align 8, !tbaa !33
  %.not.i31 = icmp eq ptr %72, null
  br i1 %.not.i31, label %Vec_IntFree.exit32, label %73

73:                                               ; preds = %Vec_IntFree.exit30
  tail call void @free(ptr noundef nonnull %72) #18
  br label %Vec_IntFree.exit32

Vec_IntFree.exit32:                               ; preds = %Vec_IntFree.exit30, %73
  tail call void @free(ptr noundef nonnull %70) #18
  %74 = getelementptr inbounds nuw i8, ptr %0, i64 96
  %75 = load ptr, ptr %74, align 8, !tbaa !61
  %76 = getelementptr inbounds nuw i8, ptr %75, i64 8
  %77 = load ptr, ptr %76, align 8, !tbaa !33
  %.not.i33 = icmp eq ptr %77, null
  br i1 %.not.i33, label %Vec_IntFree.exit34, label %78

78:                                               ; preds = %Vec_IntFree.exit32
  tail call void @free(ptr noundef nonnull %77) #18
  br label %Vec_IntFree.exit34

Vec_IntFree.exit34:                               ; preds = %Vec_IntFree.exit32, %78
  tail call void @free(ptr noundef nonnull %75) #18
  %79 = getelementptr inbounds nuw i8, ptr %0, i64 104
  %80 = load ptr, ptr %79, align 8, !tbaa !62
  %81 = getelementptr inbounds nuw i8, ptr %80, i64 8
  %82 = load ptr, ptr %81, align 8, !tbaa !33
  %.not.i35 = icmp eq ptr %82, null
  br i1 %.not.i35, label %Vec_IntFree.exit36, label %83

83:                                               ; preds = %Vec_IntFree.exit34
  tail call void @free(ptr noundef nonnull %82) #18
  br label %Vec_IntFree.exit36

Vec_IntFree.exit36:                               ; preds = %Vec_IntFree.exit34, %83
  tail call void @free(ptr noundef nonnull %80) #18
  tail call void @free(ptr noundef nonnull %0) #18
  ret void
}